; ModuleID = 'source-C-CXX/27/676.c'
source_filename = "source-C-CXX/27/676.c"
target datalayout = "e-m:e-p270:32:32-p271:32:32-p272:64:64-i64:64-f80:128-n8:16:32:64-S128"
target triple = "x86_64-pc-linux-gnu"

@.str = private unnamed_addr constant [4 x i8] c"%d,\00", align 1
@.str.1 = private unnamed_addr constant [3 x i8] c"%d\00", align 1

; Function Attrs: nounwind sspstrong uwtable
define dso_local i32 @main() local_unnamed_addr #0 {
  %1 = alloca [300 x i32], align 16
  %2 = alloca [30000 x i8], align 16
  %3 = bitcast [300 x i32]* %1 to i8*
  call void @llvm.lifetime.start.p0i8(i64 1200, i8* nonnull %3) #4
  %4 = getelementptr inbounds [30000 x i8], [30000 x i8]* %2, i64 0, i64 0
  call void @llvm.lifetime.start.p0i8(i64 30000, i8* nonnull %4) #4
  %5 = call i32 (i8*, ...) bitcast (i32 (...)* @gets to i32 (i8*, ...)*)(i8* nonnull %4) #4
  br label %6

6:                                                ; preds = %24, %0
  %7 = phi i64 [ %27, %24 ], [ 0, %0 ]
  %8 = phi i32 [ %25, %24 ], [ 0, %0 ]
  %9 = phi i32 [ %26, %24 ], [ 0, %0 ]
  %10 = getelementptr inbounds [30000 x i8], [30000 x i8]* %2, i64 0, i64 %7
  %11 = load i8, i8* %10, align 1, !tbaa !5
  switch i8 %11, label %22 [
    i8 0, label %12
    i8 32, label %18
  ]

12:                                               ; preds = %6
  %13 = sext i32 %8 to i64
  %14 = getelementptr inbounds [300 x i32], [300 x i32]* %1, i64 0, i64 %13
  store i32 %9, i32* %14, align 4, !tbaa !8
  %15 = icmp sgt i32 %8, 0
  br i1 %15, label %16, label %28

16:                                               ; preds = %12
  %17 = zext i32 %8 to i64
  br label %30

18:                                               ; preds = %6
  %19 = sext i32 %8 to i64
  %20 = getelementptr inbounds [300 x i32], [300 x i32]* %1, i64 0, i64 %19
  store i32 %9, i32* %20, align 4, !tbaa !8
  %21 = add nsw i32 %8, 1
  br label %24

22:                                               ; preds = %6
  %23 = add nsw i32 %9, 1
  br label %24

24:                                               ; preds = %22, %18
  %25 = phi i32 [ %21, %18 ], [ %8, %22 ]
  %26 = phi i32 [ 0, %18 ], [ %23, %22 ]
  %27 = add nuw i64 %7, 1
  br label %6

28:                                               ; preds = %37, %12
  %29 = call i32 (i8*, ...) @printf(i8* nonnull dereferenceable(1) getelementptr inbounds ([3 x i8], [3 x i8]* @.str.1, i64 0, i64 0), i32 %9)
  call void @llvm.lifetime.end.p0i8(i64 30000, i8* nonnull %4) #4
  call void @llvm.lifetime.end.p0i8(i64 1200, i8* nonnull %3) #4
  ret i32 0

30:                                               ; preds = %16, %37
  %31 = phi i64 [ 0, %16 ], [ %38, %37 ]
  %32 = getelementptr inbounds [300 x i32], [300 x i32]* %1, i64 0, i64 %31
  %33 = load i32, i32* %32, align 4, !tbaa !8
  %34 = icmp eq i32 %33, 0
  br i1 %34, label %37, label %35

35:                                               ; preds = %30
  %36 = call i32 (i8*, ...) @printf(i8* nonnull dereferenceable(1) getelementptr inbounds ([4 x i8], [4 x i8]* @.str, i64 0, i64 0), i32 %33)
  br label %37

37:                                               ; preds = %30, %35
  %38 = add nuw nsw i64 %31, 1
  %39 = icmp eq i64 %38, %17
  br i1 %39, label %28, label %30, !llvm.loop !10
}

; Function Attrs: argmemonly mustprogress nofree nosync nounwind willreturn
declare void @llvm.lifetime.start.p0i8(i64 immarg, i8* nocapture) #1

declare i32 @gets(...) local_unnamed_addr #2

; Function Attrs: argmemonly mustprogress nofree nosync nounwind willreturn
declare void @llvm.lifetime.end.p0i8(i64 immarg, i8* nocapture) #1

; Function Attrs: nofree nounwind
declare noundef i32 @printf(i8* nocapture noundef readonly, ...) local_unnamed_addr #3


!llvm.module.flags = !{!0, !1, !2, !3}
!llvm.ident = !{!4}

!0 = !{i32 1, !"wchar_size", i32 4}
!1 = !{i32 7, !"PIC Level", i32 2}
!2 = !{i32 7, !"PIE Level", i32 2}
!3 = !{i32 7, !"uwtable", i32 1}
!4 = !{!"clang version 13.0.0"}
!5 = !{!6, !6, i64 0}
!6 = !{!"omnipotent char", !7, i64 0}
!7 = !{!"Simple C/C++ TBAA"}
!8 = !{!9, !9, i64 0}
!9 = !{!"int", !6, i64 0}
!10 = distinct !{!10, !11}
!11 = !{!"llvm.loop.mustprogress"}
